; Function Attrs: mustprogress uwtable
define noalias noundef nonnull ptr @_ZNK7rocksdb21BloomLikeFilterPolicy32GetLegacyBloomBuilderWithContextERKNS_21FilterBuildingContextE(ptr nocapture noundef nonnull align 8 dereferenceable(64) %this, ptr nocapture noundef nonnull readonly align 8 dereferenceable(68) %context) local_unnamed_addr #3 align 2 personality ptr @__gxx_personality_v0 {
entry:
  %whole_bits_per_key_ = getelementptr inbounds i8, ptr %this, i64 36
  %0 = load i32, ptr %whole_bits_per_key_, align 4
  %cmp = icmp sgt i32 %0, 13
  br i1 %cmp, label %land.lhs.true, label %invoke.cont

land.lhs.true:                                    ; preds = %entry
  %info_log = getelementptr inbounds i8, ptr %context, i64 16
  %1 = load ptr, ptr %info_log, align 8
  %tobool.not = icmp eq ptr %1, null
  br i1 %tobool.not, label %invoke.cont, label %land.lhs.true2

land.lhs.true2:                                   ; preds = %land.lhs.true
  %warned_ = getelementptr inbounds i8, ptr %this, i64 48
  %2 = load atomic i8, ptr %warned_ monotonic, align 8
  %3 = and i8 %2, 1
  %tobool.i.i.not = icmp eq i8 %3, 0
  br i1 %tobool.i.i.not, label %if.then, label %invoke.cont

if.then:                                          ; preds = %land.lhs.true2
  store atomic i8 1, ptr %warned_ seq_cst, align 8
  %cmp6 = icmp ugt i32 %0, 19
  %.str.5..str.6 = select i1 %cmp6, ptr @.str.5, ptr @.str.6
  %4 = load ptr, ptr %info_log, align 8
  tail call void (i8, ptr, ptr, ...) @_ZN7rocksdb3LogENS_12InfoLogLevelEPNS_6LoggerEPKcz(i8 noundef zeroext 2, ptr noundef %4, ptr noundef nonnull @.str.7, ptr noundef nonnull getelementptr inbounds ([128 x i8], ptr @.str.8, i64 0, i64 93), i32 noundef %0, ptr noundef nonnull %.str.5..str.6)
  %.pre = load i32, ptr %whole_bits_per_key_, align 4
  br label %invoke.cont

invoke.cont:                                      ; preds = %entry, %land.lhs.true, %land.lhs.true2, %if.then
  %5 = phi i32 [ %0, %entry ], [ %0, %land.lhs.true ], [ %0, %land.lhs.true2 ], [ %.pre, %if.then ]
  %call12 = tail call noalias noundef nonnull dereferenceable(48) ptr @_Znwm(i64 noundef 48) #34
  %info_log14 = getelementptr inbounds i8, ptr %context, i64 16
  %6 = load ptr, ptr %info_log14, align 8
  store ptr getelementptr inbounds ({ [12 x ptr] }, ptr @_ZTVN7rocksdb12_GLOBAL__N_122LegacyBloomBitsBuilderE, i64 0, i32 0, i64 2), ptr %call12, align 8
  %bits_per_key_.i = getelementptr inbounds i8, ptr %call12, i64 8
  store i32 %5, ptr %bits_per_key_.i, align 8
  %num_probes_.i = getelementptr inbounds i8, ptr %call12, i64 12
  %conv.i.i = sitofp i32 %5 to double
  %mul.i.i = fmul double %conv.i.i, 6.900000e-01
  %conv1.i.i = fptosi double %mul.i.i to i32
  %spec.store.select.i.i = tail call i32 @llvm.smax.i32(i32 %conv1.i.i, i32 1)
  %spec.store.select1.i.i = tail call noundef i32 @llvm.umin.i32(i32 %spec.store.select.i.i, i32 30)
  store i32 %spec.store.select1.i.i, ptr %num_probes_.i, align 4
  %hash_entries_.i = getelementptr inbounds i8, ptr %call12, i64 16
  tail call void @llvm.memset.p0.i64(ptr noundef nonnull align 8 dereferenceable(24) %hash_entries_.i, i8 0, i64 24, i1 false)
  %info_log_.i = getelementptr inbounds i8, ptr %call12, i64 40
  store ptr %6, ptr %info_log_.i, align 8
  ret ptr %call12
}